target datalayout = "e-m:e-p270:32:32-p271:32:32-p272:64:64-i64:64-i128:128-f80:128-n8:16:32:64-S128"
target triple = "x86_64-pc-linux-gnu"

%struct.Gia_ParFra_t_ = type { i32, i32, i32, i32, i32, i32 }
%struct.Ccf_Man_t_ = type { ptr, i32, i32, i32, i32, ptr, ptr, ptr, ptr }
%struct.Vec_Int_t_ = type { i32, i32, ptr }

@Ccf_ManStart.pPars = internal global ptr @Ccf_ManStart.Pars, align 8

; Function Attrs: inlinehint nounwind uwtable
define internal ptr @Vec_IntAlloc(i32 noundef %0) #5 {
  %2 = alloca i32, align 4
  %3 = alloca ptr, align 8
  store i32 %0, ptr %2, align 4, !tbaa !8
  call void @llvm.lifetime.start.p0(i64 8, ptr %3) #12
  %4 = call noalias ptr @malloc(i64 noundef 16) #14
  store ptr %4, ptr %3, align 8, !tbaa !29
  %5 = load i32, ptr %2, align 4, !tbaa !8
  %6 = icmp sgt i32 %5, 0
  br i1 %6, label %7, label %11

7:                                                ; preds = %1
  %8 = load i32, ptr %2, align 4, !tbaa !8
  %9 = icmp slt i32 %8, 16
  br i1 %9, label %10, label %11

10:                                               ; preds = %7
  store i32 16, ptr %2, align 4, !tbaa !8
  br label %11

11:                                               ; preds = %10, %7, %1
  %12 = load ptr, ptr %3, align 8, !tbaa !29
  %13 = getelementptr inbounds nuw %struct.Vec_Int_t_, ptr %12, i32 0, i32 1
  store i32 0, ptr %13, align 4, !tbaa !30
  %14 = load i32, ptr %2, align 4, !tbaa !8
  %15 = load ptr, ptr %3, align 8, !tbaa !29
  %16 = getelementptr inbounds nuw %struct.Vec_Int_t_, ptr %15, i32 0, i32 0
  store i32 %14, ptr %16, align 8, !tbaa !33
  %17 = load ptr, ptr %3, align 8, !tbaa !29
  %18 = getelementptr inbounds nuw %struct.Vec_Int_t_, ptr %17, i32 0, i32 0
  %19 = load i32, ptr %18, align 8, !tbaa !33
  %20 = icmp ne i32 %19, 0
  br i1 %20, label %21, label %28

21:                                               ; preds = %11
  %22 = load ptr, ptr %3, align 8, !tbaa !29
  %23 = getelementptr inbounds nuw %struct.Vec_Int_t_, ptr %22, i32 0, i32 0
  %24 = load i32, ptr %23, align 8, !tbaa !33
  %25 = sext i32 %24 to i64
  %26 = mul i64 4, %25
  %27 = call noalias ptr @malloc(i64 noundef %26) #14
  br label %29

28:                                               ; preds = %11
  br label %29

29:                                               ; preds = %28, %21
  %30 = phi ptr [ %27, %21 ], [ null, %28 ]
  %31 = load ptr, ptr %3, align 8, !tbaa !29
  %32 = getelementptr inbounds nuw %struct.Vec_Int_t_, ptr %31, i32 0, i32 2
  store ptr %30, ptr %32, align 8, !tbaa !34
  %33 = load ptr, ptr %3, align 8, !tbaa !29
  call void @llvm.lifetime.end.p0(i64 8, ptr %3) #12
  ret ptr %33
}

; Function Attrs: nounwind uwtable
define ptr @Ccf_ManStart(ptr noundef %0, i32 noundef %1, i32 noundef %2, i32 noundef %3, i32 noundef %4) #0 {
  %6 = alloca ptr, align 8
  %7 = alloca i32, align 4
  %8 = alloca i32, align 4
  %9 = alloca i32, align 4
  %10 = alloca i32, align 4
  %11 = alloca ptr, align 8
  store ptr %0, ptr %6, align 8, !tbaa !3
  store i32 %1, ptr %7, align 4, !tbaa !8
  store i32 %2, ptr %8, align 4, !tbaa !8
  store i32 %3, ptr %9, align 4, !tbaa !8
  store i32 %4, ptr %10, align 4, !tbaa !8
  call void @llvm.lifetime.start.p0(i64 8, ptr %11) #12
  %12 = call noalias ptr @calloc(i64 noundef 1, i64 noundef 56) #13
  store ptr %12, ptr %11, align 8, !tbaa !10
  %13 = load ptr, ptr %6, align 8, !tbaa !3
  %14 = load ptr, ptr %11, align 8, !tbaa !10
  %15 = getelementptr inbounds nuw %struct.Ccf_Man_t_, ptr %14, i32 0, i32 0
  store ptr %13, ptr %15, align 8, !tbaa !12
  %16 = load i32, ptr %7, align 4, !tbaa !8
  %17 = load ptr, ptr %11, align 8, !tbaa !10
  %18 = getelementptr inbounds nuw %struct.Ccf_Man_t_, ptr %17, i32 0, i32 1
  store i32 %16, ptr %18, align 8, !tbaa !16
  %19 = load i32, ptr %8, align 4, !tbaa !8
  %20 = load ptr, ptr %11, align 8, !tbaa !10
  %21 = getelementptr inbounds nuw %struct.Ccf_Man_t_, ptr %20, i32 0, i32 2
  store i32 %19, ptr %21, align 4, !tbaa !17
  %22 = load i32, ptr %9, align 4, !tbaa !8
  %23 = load ptr, ptr %11, align 8, !tbaa !10
  %24 = getelementptr inbounds nuw %struct.Ccf_Man_t_, ptr %23, i32 0, i32 3
  store i32 %22, ptr %24, align 8, !tbaa !18
  %25 = load i32, ptr %10, align 4, !tbaa !8
  %26 = load ptr, ptr %11, align 8, !tbaa !10
  %27 = getelementptr inbounds nuw %struct.Ccf_Man_t_, ptr %26, i32 0, i32 4
  store i32 %25, ptr %27, align 4, !tbaa !19
  %28 = load ptr, ptr @Ccf_ManStart.pPars, align 8, !tbaa !20
  call void @llvm.memset.p0.i64(ptr align 4 %28, i8 0, i64 24, i1 false)
  %29 = load i32, ptr %10, align 4, !tbaa !8
  %30 = load ptr, ptr @Ccf_ManStart.pPars, align 8, !tbaa !20
  %31 = getelementptr inbounds nuw %struct.Gia_ParFra_t_, ptr %30, i32 0, i32 5
  store i32 %29, ptr %31, align 4, !tbaa !22
  %32 = load i32, ptr %7, align 4, !tbaa !8
  %33 = load ptr, ptr @Ccf_ManStart.pPars, align 8, !tbaa !20
  %34 = getelementptr inbounds nuw %struct.Gia_ParFra_t_, ptr %33, i32 0, i32 0
  store i32 %32, ptr %34, align 4, !tbaa !24
  %35 = load ptr, ptr @Ccf_ManStart.pPars, align 8, !tbaa !20
  %36 = getelementptr inbounds nuw %struct.Gia_ParFra_t_, ptr %35, i32 0, i32 2
  store i32 1, ptr %36, align 4, !tbaa !25
  %37 = load ptr, ptr %6, align 8, !tbaa !3
  %38 = load ptr, ptr @Ccf_ManStart.pPars, align 8, !tbaa !20
  %39 = call ptr @Gia_ManUnrollStart(ptr noundef %37, ptr noundef %38)
  %40 = load ptr, ptr %11, align 8, !tbaa !10
  %41 = getelementptr inbounds nuw %struct.Ccf_Man_t_, ptr %40, i32 0, i32 5
  store ptr %39, ptr %41, align 8, !tbaa !26
  %42 = call ptr @Vec_IntAlloc(i32 noundef 1000)
  %43 = load ptr, ptr %11, align 8, !tbaa !10
  %44 = getelementptr inbounds nuw %struct.Ccf_Man_t_, ptr %43, i32 0, i32 7
  store ptr %42, ptr %44, align 8, !tbaa !27
  %45 = call ptr @sat_solver_new()
  %46 = load ptr, ptr %11, align 8, !tbaa !10
  %47 = getelementptr inbounds nuw %struct.Ccf_Man_t_, ptr %46, i32 0, i32 8
  store ptr %45, ptr %47, align 8, !tbaa !28
  %48 = load ptr, ptr %11, align 8, !tbaa !10
  call void @llvm.lifetime.end.p0(i64 8, ptr %11) #12
  ret ptr %48
}