; Function Attrs: nounwind uwtable
define noalias noundef ptr @Ccf_ManStart(ptr noundef %0, i32 noundef %1, i32 noundef %2, i32 noundef %3, i32 noundef %4) local_unnamed_addr #0 {
  %6 = tail call noalias dereferenceable_or_null(56) ptr @calloc(i64 noundef 1, i64 noundef 56) #16
  store ptr %0, ptr %6, align 8, !tbaa !3
  %7 = getelementptr inbounds nuw i8, ptr %6, i64 8
  store i32 %1, ptr %7, align 8, !tbaa !12
  %8 = getelementptr inbounds nuw i8, ptr %6, i64 12
  store i32 %2, ptr %8, align 4, !tbaa !13
  %9 = getelementptr inbounds nuw i8, ptr %6, i64 16
  store i32 %3, ptr %9, align 8, !tbaa !14
  %10 = getelementptr inbounds nuw i8, ptr %6, i64 20
  store i32 %4, ptr %10, align 4, !tbaa !15
  tail call void @llvm.memset.p0.i64(ptr noundef nonnull align 4 dereferenceable(24) getelementptr inbounds nuw (i8, ptr @Ccf_ManStart.Pars, i64 4), i8 0, i64 16, i1 false)
  store i32 %4, ptr getelementptr inbounds nuw (i8, ptr @Ccf_ManStart.Pars, i64 20), align 4, !tbaa !16
  store i32 %1, ptr @Ccf_ManStart.Pars, align 4, !tbaa !18
  store i32 1, ptr getelementptr inbounds nuw (i8, ptr @Ccf_ManStart.Pars, i64 8), align 4, !tbaa !19
  %11 = tail call ptr @Gia_ManUnrollStart(ptr noundef %0, ptr noundef nonnull @Ccf_ManStart.Pars) #17
  %12 = getelementptr inbounds nuw i8, ptr %6, i64 24
  store ptr %11, ptr %12, align 8, !tbaa !20
  %13 = tail call noalias dereferenceable_or_null(16) ptr @malloc(i64 noundef 16) #18
  %14 = getelementptr inbounds nuw i8, ptr %13, i64 4
  store i32 0, ptr %14, align 4, !tbaa !21
  store i32 1000, ptr %13, align 8, !tbaa !24
  %15 = tail call noalias dereferenceable_or_null(4000) ptr @malloc(i64 noundef 4000) #18
  %16 = getelementptr inbounds nuw i8, ptr %13, i64 8
  store ptr %15, ptr %16, align 8, !tbaa !25
  %17 = getelementptr inbounds nuw i8, ptr %6, i64 40
  store ptr %13, ptr %17, align 8, !tbaa !26
  %18 = tail call ptr @sat_solver_new() #17
  %19 = getelementptr inbounds nuw i8, ptr %6, i64 48
  store ptr %18, ptr %19, align 8, !tbaa !27
  ret ptr %6
}